; Function Attrs: mustprogress nofree norecurse nosync nounwind willreturn memory(read, inaccessiblemem: none) uwtable
define range(i32 -128, 128) i32 @ucnv_getPlatform_77(ptr noundef readonly captures(none) %0, ptr noundef readonly captures(none) %1) local_unnamed_addr #9 {
  %3 = load i32, ptr %1, align 4, !tbaa !3
  %4 = icmp slt i32 %3, 1
  br i1 %4, label %5, label %13

5:                                                ; preds = %2
  %6 = getelementptr inbounds nuw i8, ptr %0, i64 48
  %7 = load ptr, ptr %6, align 8, !tbaa !8
  %8 = getelementptr inbounds nuw i8, ptr %7, i64 16
  %9 = load ptr, ptr %8, align 8, !tbaa !44
  %10 = getelementptr inbounds nuw i8, ptr %9, i64 68
  %11 = load i8, ptr %10, align 4, !tbaa !73
  %12 = sext i8 %11 to i32
  br label %13

13:                                               ; preds = %2, %5
  %.0 = phi i32 [ %12, %5 ], [ -1, %2 ]
  ret i32 %.0
}